target datalayout = "e-m:e-p270:32:32-p271:32:32-p272:64:64-i64:64-i128:128-f80:128-n8:16:32:64-S128"
target triple = "x86_64-pc-linux-gnu"

%struct.dh_st = type { i32, i32, %struct.ffc_params_st, i32, ptr, ptr, i32, ptr, %struct.CRYPTO_REF_COUNT, %struct.crypto_ex_data_st, ptr, ptr, ptr, ptr, i64 }
%struct.ffc_params_st = type { ptr, ptr, ptr, ptr, ptr, i64, i32, i32, i32, i32, i32, ptr, ptr, i32 }
%struct.CRYPTO_REF_COUNT = type { i32 }
%struct.crypto_ex_data_st = type { ptr, ptr }
%struct.int_dhx942_dh = type { ptr, ptr, ptr, ptr, ptr }
%struct.int_dhvparams = type { ptr, ptr }
%struct.asn1_string_st = type { i32, i32, ptr, i64 }

@DHxparams_it.local_it = internal constant { i8, [7 x i8], i64, ptr, i64, ptr, i64, ptr } { i8 1, [7 x i8] zeroinitializer, i64 16, ptr @DHxparams_seq_tt, i64 5, ptr null, i64 40, ptr @.str.6 }, align 8

; Function Attrs: nounwind uwtable
define internal ptr @DHxparams_it() #0 {
  ret ptr @DHxparams_it.local_it
}

; Function Attrs: nounwind uwtable
define i32 @i2d_int_dhx(ptr noundef %0, ptr noundef %1) #0 {
  %3 = alloca ptr, align 8
  %4 = alloca ptr, align 8
  store ptr %0, ptr %3, align 8, !tbaa !14
  store ptr %1, ptr %4, align 8, !tbaa !8
  %5 = load ptr, ptr %3, align 8, !tbaa !14
  %6 = load ptr, ptr %4, align 8, !tbaa !8
  %7 = call ptr @DHxparams_it()
  %8 = call i32 @ASN1_item_i2d(ptr noundef %5, ptr noundef %6, ptr noundef %7)
  ret i32 %8
}

; Function Attrs: nounwind uwtable
define i32 @i2d_DHxparams(ptr noundef %0, ptr noundef %1) #0 {
  %3 = alloca i32, align 4
  %4 = alloca ptr, align 8
  %5 = alloca ptr, align 8
  %6 = alloca i32, align 4
  %7 = alloca %struct.int_dhx942_dh, align 8
  %8 = alloca %struct.int_dhvparams, align 8
  %9 = alloca %struct.asn1_string_st, align 8
  %10 = alloca i64, align 8
  %11 = alloca ptr, align 8
  %12 = alloca i32, align 4
  %13 = alloca i32, align 4
  store ptr %0, ptr %4, align 8, !tbaa !12
  store ptr %1, ptr %5, align 8, !tbaa !8
  call void @llvm.lifetime.start.p0(i64 4, ptr %6) #4
  store i32 0, ptr %6, align 4, !tbaa !33
  call void @llvm.lifetime.start.p0(i64 40, ptr %7) #4
  call void @llvm.lifetime.start.p0(i64 16, ptr %8) #4
  call void @llvm.memset.p0.i64(ptr align 8 %8, i8 0, i64 16, i1 false)
  call void @llvm.lifetime.start.p0(i64 24, ptr %9) #4
  call void @llvm.lifetime.start.p0(i64 8, ptr %10) #4
  store i64 0, ptr %10, align 8, !tbaa !10
  call void @llvm.lifetime.start.p0(i64 8, ptr %11) #4
  %14 = load ptr, ptr %4, align 8, !tbaa !12
  %15 = getelementptr inbounds nuw %struct.dh_st, ptr %14, i32 0, i32 2
  store ptr %15, ptr %11, align 8, !tbaa !15
  call void @llvm.lifetime.start.p0(i64 4, ptr %12) #4
  %16 = load ptr, ptr %11, align 8, !tbaa !15
  %17 = getelementptr inbounds nuw %struct.int_dhx942_dh, ptr %7, i32 0, i32 0
  %18 = getelementptr inbounds nuw %struct.int_dhx942_dh, ptr %7, i32 0, i32 1
  %19 = getelementptr inbounds nuw %struct.int_dhx942_dh, ptr %7, i32 0, i32 2
  call void @ossl_ffc_params_get0_pqg(ptr noundef %16, ptr noundef %17, ptr noundef %18, ptr noundef %19)
  %20 = load ptr, ptr %11, align 8, !tbaa !15
  %21 = getelementptr inbounds nuw %struct.ffc_params_st, ptr %20, i32 0, i32 3
  %22 = load ptr, ptr %21, align 8, !tbaa !34
  %23 = getelementptr inbounds nuw %struct.int_dhx942_dh, ptr %7, i32 0, i32 3
  store ptr %22, ptr %23, align 8, !tbaa !22
  %24 = load ptr, ptr %11, align 8, !tbaa !15
  %25 = getelementptr inbounds nuw %struct.asn1_string_st, ptr %9, i32 0, i32 2
  call void @ossl_ffc_params_get_validate_params(ptr noundef %24, ptr noundef %25, ptr noundef %10, ptr noundef %12)
  %26 = load i64, ptr %10, align 8, !tbaa !10
  %27 = trunc i64 %26 to i32
  %28 = getelementptr inbounds nuw %struct.asn1_string_st, ptr %9, i32 0, i32 0
  store i32 %27, ptr %28, align 8, !tbaa !32
  %29 = load i32, ptr %12, align 4, !tbaa !33
  %30 = icmp ne i32 %29, -1
  br i1 %30, label %31, label %58

31:                                               ; preds = %2
  %32 = getelementptr inbounds nuw %struct.asn1_string_st, ptr %9, i32 0, i32 2
  %33 = load ptr, ptr %32, align 8, !tbaa !28
  %34 = icmp ne ptr %33, null
  br i1 %34, label %35, label %58

35:                                               ; preds = %31
  %36 = getelementptr inbounds nuw %struct.asn1_string_st, ptr %9, i32 0, i32 0
  %37 = load i32, ptr %36, align 8, !tbaa !32
  %38 = icmp sgt i32 %37, 0
  br i1 %38, label %39, label %58

39:                                               ; preds = %35
  %40 = getelementptr inbounds nuw %struct.asn1_string_st, ptr %9, i32 0, i32 3
  store i64 8, ptr %40, align 8, !tbaa !36
  %41 = getelementptr inbounds nuw %struct.int_dhvparams, ptr %8, i32 0, i32 0
  store ptr %9, ptr %41, align 8, !tbaa !27
  %42 = call ptr @BN_new()
  %43 = getelementptr inbounds nuw %struct.int_dhvparams, ptr %8, i32 0, i32 1
  store ptr %42, ptr %43, align 8, !tbaa !24
  %44 = getelementptr inbounds nuw %struct.int_dhvparams, ptr %8, i32 0, i32 1
  %45 = load ptr, ptr %44, align 8, !tbaa !24
  %46 = icmp eq ptr %45, null
  br i1 %46, label %47, label %48

47:                                               ; preds = %39
  store i32 0, ptr %3, align 4
  store i32 1, ptr %13, align 4
  br label %67

48:                                               ; preds = %39
  %49 = getelementptr inbounds nuw %struct.int_dhvparams, ptr %8, i32 0, i32 1
  %50 = load ptr, ptr %49, align 8, !tbaa !24
  %51 = load i32, ptr %12, align 4, !tbaa !33
  %52 = sext i32 %51 to i64
  %53 = call i32 @BN_set_word(ptr noundef %50, i64 noundef %52)
  %54 = icmp ne i32 %53, 0
  br i1 %54, label %56, label %55

55:                                               ; preds = %48
  br label %63

56:                                               ; preds = %48
  %57 = getelementptr inbounds nuw %struct.int_dhx942_dh, ptr %7, i32 0, i32 4
  store ptr %8, ptr %57, align 8, !tbaa !23
  br label %60

58:                                               ; preds = %35, %31, %2
  %59 = getelementptr inbounds nuw %struct.int_dhx942_dh, ptr %7, i32 0, i32 4
  store ptr null, ptr %59, align 8, !tbaa !23
  br label %60

60:                                               ; preds = %58, %56
  %61 = load ptr, ptr %5, align 8, !tbaa !8
  %62 = call i32 @i2d_int_dhx(ptr noundef %7, ptr noundef %61)
  store i32 %62, ptr %6, align 4, !tbaa !33
  br label %63

63:                                               ; preds = %60, %55
  %64 = getelementptr inbounds nuw %struct.int_dhvparams, ptr %8, i32 0, i32 1
  %65 = load ptr, ptr %64, align 8, !tbaa !24
  call void @BN_free(ptr noundef %65)
  %66 = load i32, ptr %6, align 4, !tbaa !33
  store i32 %66, ptr %3, align 4
  store i32 1, ptr %13, align 4
  br label %67

67:                                               ; preds = %63, %47
  call void @llvm.lifetime.end.p0(i64 4, ptr %12) #4
  call void @llvm.lifetime.end.p0(i64 8, ptr %11) #4
  call void @llvm.lifetime.end.p0(i64 8, ptr %10) #4
  call void @llvm.lifetime.end.p0(i64 24, ptr %9) #4
  call void @llvm.lifetime.end.p0(i64 16, ptr %8) #4
  call void @llvm.lifetime.end.p0(i64 40, ptr %7) #4
  call void @llvm.lifetime.end.p0(i64 4, ptr %6) #4
  %68 = load i32, ptr %3, align 4
  ret i32 %68
}