; Function Attrs: nounwind uwtable
define i32 @i2d_DHxparams(ptr noundef %0, ptr noundef %1) local_unnamed_addr #1 {
  %3 = alloca %struct.int_dhx942_dh, align 8
  %4 = alloca %struct.int_dhvparams, align 8
  %5 = alloca %struct.asn1_string_st, align 8
  %6 = alloca i64, align 8
  %7 = alloca i32, align 4
  call void @llvm.lifetime.start.p0(i64 40, ptr nonnull %3) #5
  call void @llvm.lifetime.start.p0(i64 16, ptr nonnull %4) #5
  call void @llvm.memset.p0.i64(ptr noundef nonnull align 8 dereferenceable(16) %4, i8 0, i64 16, i1 false)
  call void @llvm.lifetime.start.p0(i64 24, ptr nonnull %5) #5
  call void @llvm.lifetime.start.p0(i64 8, ptr nonnull %6) #5
  store i64 0, ptr %6, align 8, !tbaa !25
  %8 = getelementptr inbounds nuw i8, ptr %0, i64 8
  call void @llvm.lifetime.start.p0(i64 4, ptr nonnull %7) #5
  %9 = getelementptr inbounds nuw i8, ptr %3, i64 8
  %10 = getelementptr inbounds nuw i8, ptr %3, i64 16
  call void @ossl_ffc_params_get0_pqg(ptr noundef nonnull %8, ptr noundef nonnull %3, ptr noundef nonnull %9, ptr noundef nonnull %10) #5
  %11 = getelementptr inbounds nuw i8, ptr %0, i64 32
  %12 = load ptr, ptr %11, align 8, !tbaa !26
  %13 = getelementptr inbounds nuw i8, ptr %3, i64 24
  store ptr %12, ptr %13, align 8, !tbaa !13
  %14 = getelementptr inbounds nuw i8, ptr %5, i64 8
  call void @ossl_ffc_params_get_validate_params(ptr noundef nonnull %8, ptr noundef nonnull %14, ptr noundef nonnull %6, ptr noundef nonnull %7) #5
  %15 = load i64, ptr %6, align 8, !tbaa !25
  %16 = trunc i64 %15 to i32
  store i32 %16, ptr %5, align 8, !tbaa !24
  %17 = load i32, ptr %7, align 4, !tbaa !28
  %18 = icmp ne i32 %17, -1
  %19 = load ptr, ptr %14, align 8
  %20 = icmp ne ptr %19, null
  %or.cond = select i1 %18, i1 %20, i1 false
  %21 = icmp sgt i32 %16, 0
  %or.cond5 = select i1 %or.cond, i1 %21, i1 false
  br i1 %or.cond5, label %22, label %31

22:                                               ; preds = %2
  %23 = getelementptr inbounds nuw i8, ptr %5, i64 16
  store i64 8, ptr %23, align 8, !tbaa !29
  store ptr %5, ptr %4, align 8, !tbaa !18
  %24 = call ptr @BN_new() #5
  %25 = getelementptr inbounds nuw i8, ptr %4, i64 8
  store ptr %24, ptr %25, align 8, !tbaa !15
  %26 = icmp eq ptr %24, null
  br i1 %26, label %36, label %27

27:                                               ; preds = %22
  %28 = load i32, ptr %7, align 4, !tbaa !28
  %29 = sext i32 %28 to i64
  %30 = call i32 @BN_set_word(ptr noundef nonnull %24, i64 noundef %29) #5
  %.not = icmp eq i32 %30, 0
  br i1 %.not, label %34, label %31

31:                                               ; preds = %2, %27
  %.sink = phi ptr [ %4, %27 ], [ null, %2 ]
  %32 = getelementptr inbounds nuw i8, ptr %3, i64 32
  store ptr %.sink, ptr %32, align 8, !tbaa !14
  %33 = call i32 @ASN1_item_i2d(ptr noundef nonnull %3, ptr noundef %1, ptr noundef nonnull @DHxparams_it.local_it) #5
  %.phi.trans.insert = getelementptr inbounds nuw i8, ptr %4, i64 8
  %.pre = load ptr, ptr %.phi.trans.insert, align 8, !tbaa !15
  br label %34

34:                                               ; preds = %27, %31
  %35 = phi ptr [ %.pre, %31 ], [ %24, %27 ]
  %.011 = phi i32 [ %33, %31 ], [ 0, %27 ]
  call void @BN_free(ptr noundef %35) #5
  br label %36

36:                                               ; preds = %22, %34
  %.0 = phi i32 [ %.011, %34 ], [ 0, %22 ]
  call void @llvm.lifetime.end.p0(i64 4, ptr nonnull %7) #5
  call void @llvm.lifetime.end.p0(i64 8, ptr nonnull %6) #5
  call void @llvm.lifetime.end.p0(i64 24, ptr nonnull %5) #5
  call void @llvm.lifetime.end.p0(i64 16, ptr nonnull %4) #5
  call void @llvm.lifetime.end.p0(i64 40, ptr nonnull %3) #5
  ret i32 %.0
}